target datalayout = "e-m:e-p270:32:32-p271:32:32-p272:64:64-i64:64-i128:128-f80:128-n8:16:32:64-S128"
target triple = "x86_64-pc-linux-gnu"

%class.TypeInteger.base = type { %class.Type.base, i16 }
%class.Type.base = type <{ ptr, ptr, i32 }>
%class.TypeLong = type { %class.TypeInteger.base, i64, i64 }

@_ZN7TypeInt5CC_LTE = external global ptr, align 8
@_ZN7TypeInt5CC_GTE = external global ptr, align 8
@_ZN7TypeInt5CC_EQE = external global ptr, align 8
@_ZN7TypeInt5CC_LEE = external global ptr, align 8
@_ZN7TypeInt5CC_GEE = external global ptr, align 8
@_ZN7TypeInt2CCE = external global ptr, align 8

; Function Attrs: mustprogress nounwind uwtable
define linkonce_odr hidden noundef ptr @_ZNK4Type7is_longEv(ptr noundef nonnull align 8 dereferenceable(20) %0) #1 comdat align 2 {
  %2 = alloca ptr, align 8
  store ptr %0, ptr %2, align 8
  %3 = load ptr, ptr %2, align 8
  ret ptr %3
}

; Function Attrs: mustprogress nounwind uwtable
define hidden noundef ptr @_ZNK9CmpULNode3subEPK4TypeS2_(ptr noundef nonnull align 8 dereferenceable(52) %0, ptr noundef %1, ptr noundef %2) unnamed_addr #1 align 2 {
  %4 = alloca ptr, align 8
  %5 = alloca ptr, align 8
  %6 = alloca ptr, align 8
  %7 = alloca ptr, align 8
  %8 = alloca ptr, align 8
  %9 = alloca ptr, align 8
  %10 = alloca i64, align 8
  %11 = alloca i64, align 8
  %12 = alloca i64, align 8
  %13 = alloca i64, align 8
  %14 = alloca i8, align 1
  %15 = alloca i8, align 1
  store ptr %0, ptr %5, align 8
  store ptr %1, ptr %6, align 8
  store ptr %2, ptr %7, align 8
  %16 = load ptr, ptr %6, align 8
  %17 = call noundef ptr @_ZNK4Type7is_longEv(ptr noundef nonnull align 8 dereferenceable(20) %16)
  store ptr %17, ptr %8, align 8
  %18 = load ptr, ptr %7, align 8
  %19 = call noundef ptr @_ZNK4Type7is_longEv(ptr noundef nonnull align 8 dereferenceable(20) %18)
  store ptr %19, ptr %9, align 8
  %20 = load ptr, ptr %8, align 8
  %21 = getelementptr inbounds %class.TypeLong, ptr %20, i32 0, i32 1
  %22 = load i64, ptr %21, align 8
  store i64 %22, ptr %10, align 8
  %23 = load ptr, ptr %8, align 8
  %24 = getelementptr inbounds %class.TypeLong, ptr %23, i32 0, i32 2
  %25 = load i64, ptr %24, align 8
  store i64 %25, ptr %11, align 8
  %26 = load ptr, ptr %9, align 8
  %27 = getelementptr inbounds %class.TypeLong, ptr %26, i32 0, i32 1
  %28 = load i64, ptr %27, align 8
  store i64 %28, ptr %12, align 8
  %29 = load ptr, ptr %9, align 8
  %30 = getelementptr inbounds %class.TypeLong, ptr %29, i32 0, i32 2
  %31 = load i64, ptr %30, align 8
  store i64 %31, ptr %13, align 8
  %32 = load i64, ptr %10, align 8
  %33 = load i64, ptr %11, align 8
  %34 = xor i64 %32, %33
  %35 = icmp slt i64 %34, 0
  %36 = zext i1 %35 to i8
  store i8 %36, ptr %14, align 1
  %37 = load i64, ptr %12, align 8
  %38 = load i64, ptr %13, align 8
  %39 = xor i64 %37, %38
  %40 = icmp slt i64 %39, 0
  %41 = zext i1 %40 to i8
  store i8 %41, ptr %15, align 1
  %42 = load i8, ptr %14, align 1
  %43 = trunc i8 %42 to i1
  br i1 %43, label %47, label %44

44:                                               ; preds = %3
  %45 = load i8, ptr %15, align 1
  %46 = trunc i8 %45 to i1
  br i1 %46, label %47, label %83

47:                                               ; preds = %44, %3
  %48 = load i64, ptr %10, align 8
  %49 = icmp eq i64 %48, 0
  br i1 %49, label %50, label %55

50:                                               ; preds = %47
  %51 = load i64, ptr %11, align 8
  %52 = icmp eq i64 %51, 0
  br i1 %52, label %53, label %55

53:                                               ; preds = %50
  %54 = load ptr, ptr @_ZN7TypeInt5CC_LEE, align 8
  store ptr %54, ptr %4, align 8
  br label %124

55:                                               ; preds = %50, %47
  %56 = load i64, ptr %10, align 8
  %57 = icmp eq i64 %56, -1
  br i1 %57, label %58, label %63

58:                                               ; preds = %55
  %59 = load i64, ptr %11, align 8
  %60 = icmp eq i64 %59, -1
  br i1 %60, label %61, label %63

61:                                               ; preds = %58
  %62 = load ptr, ptr @_ZN7TypeInt5CC_GEE, align 8
  store ptr %62, ptr %4, align 8
  br label %124

63:                                               ; preds = %58, %55
  %64 = load i64, ptr %12, align 8
  %65 = icmp eq i64 %64, 0
  br i1 %65, label %66, label %71

66:                                               ; preds = %63
  %67 = load i64, ptr %13, align 8
  %68 = icmp eq i64 %67, 0
  br i1 %68, label %69, label %71

69:                                               ; preds = %66
  %70 = load ptr, ptr @_ZN7TypeInt5CC_GEE, align 8
  store ptr %70, ptr %4, align 8
  br label %124

71:                                               ; preds = %66, %63
  %72 = load i64, ptr %12, align 8
  %73 = icmp eq i64 %72, -1
  br i1 %73, label %74, label %79

74:                                               ; preds = %71
  %75 = load i64, ptr %13, align 8
  %76 = icmp eq i64 %75, -1
  br i1 %76, label %77, label %79

77:                                               ; preds = %74
  %78 = load ptr, ptr @_ZN7TypeInt5CC_LEE, align 8
  store ptr %78, ptr %4, align 8
  br label %124

79:                                               ; preds = %74, %71
  br label %80

80:                                               ; preds = %79
  br label %81

81:                                               ; preds = %80
  br label %82

82:                                               ; preds = %81
  br label %122

83:                                               ; preds = %44
  %84 = load i64, ptr %11, align 8
  %85 = load i64, ptr %12, align 8
  %86 = icmp ult i64 %84, %85
  br i1 %86, label %87, label %89

87:                                               ; preds = %83
  %88 = load ptr, ptr @_ZN7TypeInt5CC_LTE, align 8
  store ptr %88, ptr %4, align 8
  br label %124

89:                                               ; preds = %83
  %90 = load i64, ptr %10, align 8
  %91 = load i64, ptr %13, align 8
  %92 = icmp ugt i64 %90, %91
  br i1 %92, label %93, label %95

93:                                               ; preds = %89
  %94 = load ptr, ptr @_ZN7TypeInt5CC_GTE, align 8
  store ptr %94, ptr %4, align 8
  br label %124

95:                                               ; preds = %89
  %96 = load i64, ptr %11, align 8
  %97 = load i64, ptr %12, align 8
  %98 = icmp eq i64 %96, %97
  br i1 %98, label %99, label %105

99:                                               ; preds = %95
  %100 = load i64, ptr %10, align 8
  %101 = load i64, ptr %13, align 8
  %102 = icmp eq i64 %100, %101
  br i1 %102, label %103, label %105

103:                                              ; preds = %99
  %104 = load ptr, ptr @_ZN7TypeInt5CC_EQE, align 8
  store ptr %104, ptr %4, align 8
  br label %124

105:                                              ; preds = %99, %95
  %106 = load i64, ptr %10, align 8
  %107 = load i64, ptr %13, align 8
  %108 = icmp uge i64 %106, %107
  br i1 %108, label %109, label %111

109:                                              ; preds = %105
  %110 = load ptr, ptr @_ZN7TypeInt5CC_GEE, align 8
  store ptr %110, ptr %4, align 8
  br label %124

111:                                              ; preds = %105
  %112 = load i64, ptr %11, align 8
  %113 = load i64, ptr %12, align 8
  %114 = icmp ule i64 %112, %113
  br i1 %114, label %115, label %117

115:                                              ; preds = %111
  %116 = load ptr, ptr @_ZN7TypeInt5CC_LEE, align 8
  store ptr %116, ptr %4, align 8
  br label %124

117:                                              ; preds = %111
  br label %118

118:                                              ; preds = %117
  br label %119

119:                                              ; preds = %118
  br label %120

120:                                              ; preds = %119
  br label %121

121:                                              ; preds = %120
  br label %122

122:                                              ; preds = %121, %82
  %123 = load ptr, ptr @_ZN7TypeInt2CCE, align 8
  store ptr %123, ptr %4, align 8
  br label %124

124:                                              ; preds = %122, %115, %109, %103, %93, %87, %77, %69, %61, %53
  %125 = load ptr, ptr %4, align 8
  ret ptr %125
}