; Function Attrs: mustprogress nofree norecurse nosync nounwind willreturn memory(read, inaccessiblemem: none) uwtable
define hidden noundef ptr @_ZNK9CmpULNode3subEPK4TypeS2_(ptr nocapture noundef nonnull readnone align 8 dereferenceable(52) %0, ptr nocapture noundef readonly %1, ptr nocapture noundef readonly %2) unnamed_addr #4 align 2 {
  %4 = getelementptr inbounds i8, ptr %1, i64 24
  %5 = load i64, ptr %4, align 8
  %6 = getelementptr inbounds i8, ptr %1, i64 32
  %7 = load i64, ptr %6, align 8
  %8 = getelementptr inbounds i8, ptr %2, i64 24
  %9 = load i64, ptr %8, align 8
  %10 = getelementptr inbounds i8, ptr %2, i64 32
  %11 = load i64, ptr %10, align 8
  %12 = xor i64 %7, %5
  %13 = icmp slt i64 %12, 0
  %14 = xor i64 %11, %9
  %15 = icmp slt i64 %14, 0
  %or.cond45 = select i1 %13, i1 true, i1 %15
  br i1 %or.cond45, label %16, label %26

16:                                               ; preds = %3
  %17 = or i64 %7, %5
  %or.cond = icmp eq i64 %17, 0
  br i1 %or.cond, label %36, label %18

18:                                               ; preds = %16
  %19 = and i64 %7, %5
  %or.cond3 = icmp eq i64 %19, -1
  br i1 %or.cond3, label %36, label %20

20:                                               ; preds = %18
  %21 = icmp eq i64 %9, 0
  %22 = icmp eq i64 %11, 0
  %or.cond5 = select i1 %21, i1 %22, i1 false
  br i1 %or.cond5, label %36, label %23

23:                                               ; preds = %20
  %24 = icmp eq i64 %9, -1
  %25 = icmp eq i64 %11, -1
  %or.cond7 = select i1 %24, i1 %25, i1 false
  br i1 %or.cond7, label %36, label %35

26:                                               ; preds = %3
  %27 = icmp ult i64 %7, %9
  br i1 %27, label %36, label %28

28:                                               ; preds = %26
  %29 = icmp ugt i64 %5, %11
  br i1 %29, label %36, label %30

30:                                               ; preds = %28
  %31 = icmp eq i64 %7, %9
  %32 = icmp eq i64 %5, %11
  %or.cond46 = select i1 %31, i1 %32, i1 false
  br i1 %or.cond46, label %36, label %33

33:                                               ; preds = %30
  %.not = icmp ult i64 %5, %11
  br i1 %.not, label %34, label %36

34:                                               ; preds = %33
  %.not43 = icmp ugt i64 %7, %9
  br i1 %.not43, label %35, label %36

35:                                               ; preds = %34, %23
  br label %36

36:                                               ; preds = %34, %33, %30, %28, %26, %23, %20, %18, %16, %35
  %.0.in = phi ptr [ @_ZN7TypeInt2CCE, %35 ], [ @_ZN7TypeInt5CC_LEE, %16 ], [ @_ZN7TypeInt5CC_GEE, %18 ], [ @_ZN7TypeInt5CC_GEE, %20 ], [ @_ZN7TypeInt5CC_LEE, %23 ], [ @_ZN7TypeInt5CC_LTE, %26 ], [ @_ZN7TypeInt5CC_GTE, %28 ], [ @_ZN7TypeInt5CC_EQE, %30 ], [ @_ZN7TypeInt5CC_GEE, %33 ], [ @_ZN7TypeInt5CC_LEE, %34 ]
  %.0 = load ptr, ptr %.0.in, align 8
  ret ptr %.0
}